; ModuleID = '35/2222.c'
source_filename = "35/2222.c"
target datalayout = "e-m:e-p270:32:32-p271:32:32-p272:64:64-i64:64-f80:128-n8:16:32:64-S128"
target triple = "x86_64-pc-linux-gnu"

@.str = private unnamed_addr constant [6 x i8] c"%d,%d\00", align 1
@.str.1 = private unnamed_addr constant [3 x i8] c"%d\00", align 1
@.str.2 = private unnamed_addr constant [7 x i8] c"%d+%d\0A\00", align 1
@.str.3 = private unnamed_addr constant [4 x i8] c"No\0A\00", align 1

; Function Attrs: noinline nounwind uwtable
define dso_local void @main() #0 {
  %1 = alloca i32, align 4
  %2 = alloca i32, align 4
  %3 = alloca [8 x [8 x i32]], align 16
  %4 = alloca i32, align 4
  %5 = alloca i32, align 4
  %6 = alloca [8 x i32], align 16
  %7 = alloca [8 x i32], align 16
  %8 = call i32 (i8*, ...) @__isoc99_scanf(i8* getelementptr inbounds ([6 x i8], [6 x i8]* @.str, i64 0, i64 0), i32* %1, i32* %2)
  store i32 0, i32* %4, align 4
  br label %9

9:                                                ; preds = %32, %0
  %10 = load i32, i32* %4, align 4
  %11 = load i32, i32* %1, align 4
  %12 = sub nsw i32 %11, 1
  %13 = icmp sle i32 %10, %12
  br i1 %13, label %14, label %35

14:                                               ; preds = %9
  store i32 0, i32* %5, align 4
  br label %15

15:                                               ; preds = %28, %14
  %16 = load i32, i32* %5, align 4
  %17 = load i32, i32* %2, align 4
  %18 = sub nsw i32 %17, 1
  %19 = icmp sle i32 %16, %18
  br i1 %19, label %20, label %31

20:                                               ; preds = %15
  %21 = load i32, i32* %4, align 4
  %22 = sext i32 %21 to i64
  %23 = getelementptr inbounds [8 x [8 x i32]], [8 x [8 x i32]]* %3, i64 0, i64 %22
  %24 = load i32, i32* %5, align 4
  %25 = sext i32 %24 to i64
  %26 = getelementptr inbounds [8 x i32], [8 x i32]* %23, i64 0, i64 %25
  %27 = call i32 (i8*, ...) @__isoc99_scanf(i8* getelementptr inbounds ([3 x i8], [3 x i8]* @.str.1, i64 0, i64 0), i32* %26)
  br label %28

28:                                               ; preds = %20
  %29 = load i32, i32* %5, align 4
  %30 = add nsw i32 %29, 1
  store i32 %30, i32* %5, align 4
  br label %15

31:                                               ; preds = %15
  br label %32

32:                                               ; preds = %31
  %33 = load i32, i32* %4, align 4
  %34 = add nsw i32 %33, 1
  store i32 %34, i32* %4, align 4
  br label %9

35:                                               ; preds = %9
  %36 = bitcast [8 x i32]* %6 to i8*
  call void @llvm.memset.p0i8.i64(i8* align 16 %36, i8 0, i64 32, i1 false)
  store i32 0, i32* %4, align 4
  br label %37

37:                                               ; preds = %77, %35
  %38 = load i32, i32* %4, align 4
  %39 = load i32, i32* %1, align 4
  %40 = sub nsw i32 %39, 1
  %41 = icmp sle i32 %38, %40
  br i1 %41, label %42, label %80

42:                                               ; preds = %37
  store i32 1, i32* %5, align 4
  br label %43

43:                                               ; preds = %73, %42
  %44 = load i32, i32* %5, align 4
  %45 = load i32, i32* %2, align 4
  %46 = sub nsw i32 %45, 1
  %47 = icmp sle i32 %44, %46
  br i1 %47, label %48, label %76

48:                                               ; preds = %43
  %49 = load i32, i32* %4, align 4
  %50 = sext i32 %49 to i64
  %51 = getelementptr inbounds [8 x [8 x i32]], [8 x [8 x i32]]* %3, i64 0, i64 %50
  %52 = load i32, i32* %4, align 4
  %53 = sext i32 %52 to i64
  %54 = getelementptr inbounds [8 x i32], [8 x i32]* %6, i64 0, i64 %53
  %55 = load i32, i32* %54, align 4
  %56 = sext i32 %55 to i64
  %57 = getelementptr inbounds [8 x i32], [8 x i32]* %51, i64 0, i64 %56
  %58 = load i32, i32* %57, align 4
  %59 = load i32, i32* %4, align 4
  %60 = sext i32 %59 to i64
  %61 = getelementptr inbounds [8 x [8 x i32]], [8 x [8 x i32]]* %3, i64 0, i64 %60
  %62 = load i32, i32* %5, align 4
  %63 = sext i32 %62 to i64
  %64 = getelementptr inbounds [8 x i32], [8 x i32]* %61, i64 0, i64 %63
  %65 = load i32, i32* %64, align 4
  %66 = icmp slt i32 %58, %65
  br i1 %66, label %67, label %72

67:                                               ; preds = %48
  %68 = load i32, i32* %5, align 4
  %69 = load i32, i32* %4, align 4
  %70 = sext i32 %69 to i64
  %71 = getelementptr inbounds [8 x i32], [8 x i32]* %6, i64 0, i64 %70
  store i32 %68, i32* %71, align 4
  br label %72

72:                                               ; preds = %67, %48
  br label %73

73:                                               ; preds = %72
  %74 = load i32, i32* %5, align 4
  %75 = add nsw i32 %74, 1
  store i32 %75, i32* %5, align 4
  br label %43

76:                                               ; preds = %43
  br label %77

77:                                               ; preds = %76
  %78 = load i32, i32* %4, align 4
  %79 = add nsw i32 %78, 1
  store i32 %79, i32* %4, align 4
  br label %37

80:                                               ; preds = %37
  %81 = bitcast [8 x i32]* %7 to i8*
  call void @llvm.memset.p0i8.i64(i8* align 16 %81, i8 0, i64 32, i1 false)
  store i32 0, i32* %4, align 4
  br label %82

82:                                               ; preds = %124, %80
  %83 = load i32, i32* %4, align 4
  %84 = load i32, i32* %1, align 4
  %85 = sub nsw i32 %84, 1
  %86 = icmp sle i32 %83, %85
  br i1 %86, label %87, label %127

87:                                               ; preds = %82
  store i32 0, i32* %5, align 4
  br label %88

88:                                               ; preds = %120, %87
  %89 = load i32, i32* %5, align 4
  %90 = load i32, i32* %1, align 4
  %91 = sub nsw i32 %90, 1
  %92 = icmp sle i32 %89, %91
  br i1 %92, label %93, label %123

93:                                               ; preds = %88
  %94 = load i32, i32* %4, align 4
  %95 = sext i32 %94 to i64
  %96 = getelementptr inbounds [8 x [8 x i32]], [8 x [8 x i32]]* %3, i64 0, i64 %95
  %97 = load i32, i32* %4, align 4
  %98 = sext i32 %97 to i64
  %99 = getelementptr inbounds [8 x i32], [8 x i32]* %6, i64 0, i64 %98
  %100 = load i32, i32* %99, align 4
  %101 = sext i32 %100 to i64
  %102 = getelementptr inbounds [8 x i32], [8 x i32]* %96, i64 0, i64 %101
  %103 = load i32, i32* %102, align 4
  %104 = load i32, i32* %5, align 4
  %105 = sext i32 %104 to i64
  %106 = getelementptr inbounds [8 x [8 x i32]], [8 x [8 x i32]]* %3, i64 0, i64 %105
  %107 = load i32, i32* %4, align 4
  %108 = sext i32 %107 to i64
  %109 = getelementptr inbounds [8 x i32], [8 x i32]* %6, i64 0, i64 %108
  %110 = load i32, i32* %109, align 4
  %111 = sext i32 %110 to i64
  %112 = getelementptr inbounds [8 x i32], [8 x i32]* %106, i64 0, i64 %111
  %113 = load i32, i32* %112, align 4
  %114 = icmp sgt i32 %103, %113
  br i1 %114, label %115, label %119

115:                                              ; preds = %93
  %116 = load i32, i32* %4, align 4
  %117 = sext i32 %116 to i64
  %118 = getelementptr inbounds [8 x i32], [8 x i32]* %7, i64 0, i64 %117
  store i32 1, i32* %118, align 4
  br label %119

119:                                              ; preds = %115, %93
  br label %120

120:                                              ; preds = %119
  %121 = load i32, i32* %5, align 4
  %122 = add nsw i32 %121, 1
  store i32 %122, i32* %5, align 4
  br label %88

123:                                              ; preds = %88
  br label %124

124:                                              ; preds = %123
  %125 = load i32, i32* %4, align 4
  %126 = add nsw i32 %125, 1
  store i32 %126, i32* %4, align 4
  br label %82

127:                                              ; preds = %82
  store i32 0, i32* %4, align 4
  br label %128

128:                                              ; preds = %147, %127
  %129 = load i32, i32* %4, align 4
  %130 = load i32, i32* %1, align 4
  %131 = sub nsw i32 %130, 1
  %132 = icmp sle i32 %129, %131
  br i1 %132, label %133, label %150

133:                                              ; preds = %128
  %134 = load i32, i32* %4, align 4
  %135 = sext i32 %134 to i64
  %136 = getelementptr inbounds [8 x i32], [8 x i32]* %7, i64 0, i64 %135
  %137 = load i32, i32* %136, align 4
  %138 = icmp eq i32 %137, 0
  br i1 %138, label %139, label %146

139:                                              ; preds = %133
  %140 = load i32, i32* %4, align 4
  %141 = load i32, i32* %4, align 4
  %142 = sext i32 %141 to i64
  %143 = getelementptr inbounds [8 x i32], [8 x i32]* %6, i64 0, i64 %142
  %144 = load i32, i32* %143, align 4
  %145 = call i32 (i8*, ...) @printf(i8* getelementptr inbounds ([7 x i8], [7 x i8]* @.str.2, i64 0, i64 0), i32 %140, i32 %144)
  br label %150

146:                                              ; preds = %133
  br label %147

147:                                              ; preds = %146
  %148 = load i32, i32* %4, align 4
  %149 = add nsw i32 %148, 1
  store i32 %149, i32* %4, align 4
  br label %128

150:                                              ; preds = %139, %128
  %151 = load i32, i32* %4, align 4
  %152 = load i32, i32* %1, align 4
  %153 = icmp eq i32 %151, %152
  br i1 %153, label %154, label %156

154:                                              ; preds = %150
  %155 = call i32 (i8*, ...) @printf(i8* getelementptr inbounds ([4 x i8], [4 x i8]* @.str.3, i64 0, i64 0))
  br label %156

156:                                              ; preds = %154, %150
  ret void
}

declare dso_local i32 @__isoc99_scanf(i8*, ...) #1

; Function Attrs: argmemonly nounwind willreturn
declare void @llvm.memset.p0i8.i64(i8* nocapture writeonly, i8, i64, i1 immarg) #2

declare dso_local i32 @printf(i8*, ...) #1


!llvm.module.flags = !{!0}
!llvm.ident = !{!1}

!0 = !{i32 1, !"wchar_size", i32 4}
!1 = !{!"clang version 10.0.0-4ubuntu1 "}
